target datalayout = "e-m:e-p270:32:32-p271:32:32-p272:64:64-i64:64-i128:128-f80:128-n8:16:32:64-S128"
target triple = "x86_64-pc-linux-gnu"

%"class.url::CanonOutputT" = type { ptr, ptr, i32, i32 }

; Function Attrs: mustprogress uwtable
define linkonce_odr noundef zeroext i1 @_ZN3url12CanonOutputTIcE4GrowEi(ptr noundef nonnull align 8 dereferenceable(24) %0, i32 noundef %1) #0 comdat align 2 {
  %3 = alloca i1, align 1
  %4 = alloca ptr, align 8
  %5 = alloca i32, align 4
  %6 = alloca i32, align 4
  %7 = alloca i32, align 4
  store ptr %0, ptr %4, align 8, !tbaa !12
  store i32 %1, ptr %5, align 4, !tbaa !8
  %8 = load ptr, ptr %4, align 8
  call void @llvm.lifetime.start.p0(i64 4, ptr %6) #8
  %9 = getelementptr inbounds nuw %"class.url::CanonOutputT", ptr %8, i32 0, i32 2
  %10 = load i32, ptr %9, align 8, !tbaa !78
  %11 = icmp eq i32 %10, 0
  br i1 %11, label %12, label %13

12:                                               ; preds = %2
  br label %16

13:                                               ; preds = %2
  %14 = getelementptr inbounds nuw %"class.url::CanonOutputT", ptr %8, i32 0, i32 2
  %15 = load i32, ptr %14, align 8, !tbaa !78
  br label %16

16:                                               ; preds = %13, %12
  %17 = phi i32 [ 16, %12 ], [ %15, %13 ]
  store i32 %17, ptr %6, align 4, !tbaa !8
  br label %18

18:                                               ; preds = %25, %16
  %19 = load i32, ptr %6, align 4, !tbaa !8
  %20 = icmp sge i32 %19, 1073741824
  br i1 %20, label %21, label %22

21:                                               ; preds = %18
  store i1 false, ptr %3, align 1
  store i32 1, ptr %7, align 4
  br label %37

22:                                               ; preds = %18
  %23 = load i32, ptr %6, align 4, !tbaa !8
  %24 = mul nsw i32 %23, 2
  store i32 %24, ptr %6, align 4, !tbaa !8
  br label %25

25:                                               ; preds = %22
  %26 = load i32, ptr %6, align 4, !tbaa !8
  %27 = getelementptr inbounds nuw %"class.url::CanonOutputT", ptr %8, i32 0, i32 2
  %28 = load i32, ptr %27, align 8, !tbaa !78
  %29 = load i32, ptr %5, align 4, !tbaa !8
  %30 = add nsw i32 %28, %29
  %31 = icmp slt i32 %26, %30
  br i1 %31, label %18, label %32, !llvm.loop !79

32:                                               ; preds = %25
  %33 = load i32, ptr %6, align 4, !tbaa !8
  %34 = load ptr, ptr %8, align 8, !tbaa !80
  %35 = getelementptr inbounds ptr, ptr %34, i64 2
  %36 = load ptr, ptr %35, align 8
  call void %36(ptr noundef nonnull align 8 dereferenceable(24) %8, i32 noundef %33)
  store i1 true, ptr %3, align 1
  store i32 1, ptr %7, align 4
  br label %37

37:                                               ; preds = %32, %21
  call void @llvm.lifetime.end.p0(i64 4, ptr %6) #8
  %38 = load i1, ptr %3, align 1
  ret i1 %38
}

; Function Attrs: inlinehint mustprogress nounwind uwtable
define linkonce_odr noundef zeroext i1 @_ZN4base16IsValidCharacterEj(i32 noundef %0) #2 comdat {
  %2 = alloca i32, align 4
  store i32 %0, ptr %2, align 4, !tbaa !8
  %3 = load i32, ptr %2, align 4, !tbaa !8
  %4 = icmp ult i32 %3, 55296
  br i1 %4, label %23, label %5

5:                                                ; preds = %1
  %6 = load i32, ptr %2, align 4, !tbaa !8
  %7 = icmp uge i32 %6, 57344
  br i1 %7, label %8, label %11

8:                                                ; preds = %5
  %9 = load i32, ptr %2, align 4, !tbaa !8
  %10 = icmp ult i32 %9, 64976
  br i1 %10, label %23, label %11

11:                                               ; preds = %8, %5
  %12 = load i32, ptr %2, align 4, !tbaa !8
  %13 = icmp ugt i32 %12, 65007
  br i1 %13, label %14, label %21

14:                                               ; preds = %11
  %15 = load i32, ptr %2, align 4, !tbaa !8
  %16 = icmp ule i32 %15, 1114111
  br i1 %16, label %17, label %21

17:                                               ; preds = %14
  %18 = load i32, ptr %2, align 4, !tbaa !8
  %19 = and i32 %18, 65534
  %20 = icmp ne i32 %19, 65534
  br label %21

21:                                               ; preds = %17, %14, %11
  %22 = phi i1 [ false, %14 ], [ false, %11 ], [ %20, %17 ]
  br label %23

23:                                               ; preds = %21, %8, %1
  %24 = phi i1 [ true, %8 ], [ true, %1 ], [ %22, %21 ]
  ret i1 %24
}

; Function Attrs: mustprogress uwtable
define linkonce_odr void @_ZN3url12CanonOutputTIcE9push_backEc(ptr noundef nonnull align 8 dereferenceable(24) %0, i8 noundef signext %1) #0 comdat align 2 {
  %3 = alloca ptr, align 8
  %4 = alloca i8, align 1
  store ptr %0, ptr %3, align 8, !tbaa !12
  store i8 %1, ptr %4, align 1, !tbaa !14
  %5 = load ptr, ptr %3, align 8
  %6 = getelementptr inbounds nuw %"class.url::CanonOutputT", ptr %5, i32 0, i32 3
  %7 = load i32, ptr %6, align 4, !tbaa !77
  %8 = getelementptr inbounds nuw %"class.url::CanonOutputT", ptr %5, i32 0, i32 2
  %9 = load i32, ptr %8, align 8, !tbaa !78
  %10 = icmp slt i32 %7, %9
  br i1 %10, label %11, label %22

11:                                               ; preds = %2
  %12 = load i8, ptr %4, align 1, !tbaa !14
  %13 = getelementptr inbounds nuw %"class.url::CanonOutputT", ptr %5, i32 0, i32 1
  %14 = load ptr, ptr %13, align 8, !tbaa !72
  %15 = getelementptr inbounds nuw %"class.url::CanonOutputT", ptr %5, i32 0, i32 3
  %16 = load i32, ptr %15, align 4, !tbaa !77
  %17 = sext i32 %16 to i64
  %18 = getelementptr inbounds i8, ptr %14, i64 %17
  store i8 %12, ptr %18, align 1, !tbaa !14
  %19 = getelementptr inbounds nuw %"class.url::CanonOutputT", ptr %5, i32 0, i32 3
  %20 = load i32, ptr %19, align 4, !tbaa !77
  %21 = add nsw i32 %20, 1
  store i32 %21, ptr %19, align 4, !tbaa !77
  br label %36

22:                                               ; preds = %2
  %23 = call noundef zeroext i1 @_ZN3url12CanonOutputTIcE4GrowEi(ptr noundef nonnull align 8 dereferenceable(24) %5, i32 noundef 1)
  br i1 %23, label %25, label %24

24:                                               ; preds = %22
  br label %36

25:                                               ; preds = %22
  %26 = load i8, ptr %4, align 1, !tbaa !14
  %27 = getelementptr inbounds nuw %"class.url::CanonOutputT", ptr %5, i32 0, i32 1
  %28 = load ptr, ptr %27, align 8, !tbaa !72
  %29 = getelementptr inbounds nuw %"class.url::CanonOutputT", ptr %5, i32 0, i32 3
  %30 = load i32, ptr %29, align 4, !tbaa !77
  %31 = sext i32 %30 to i64
  %32 = getelementptr inbounds i8, ptr %28, i64 %31
  store i8 %26, ptr %32, align 1, !tbaa !14
  %33 = getelementptr inbounds nuw %"class.url::CanonOutputT", ptr %5, i32 0, i32 3
  %34 = load i32, ptr %33, align 4, !tbaa !77
  %35 = add nsw i32 %34, 1
  store i32 %35, ptr %33, align 4, !tbaa !77
  br label %36

36:                                               ; preds = %25, %24, %11
  ret void
}

; Function Attrs: inlinehint mustprogress nounwind uwtable
define linkonce_odr noundef zeroext i1 @_ZN3url12IsCharOfTypeEhNS_15SharedCharTypesE(i8 noundef zeroext %0, i32 noundef %1) #2 comdat {
  %3 = alloca i8, align 1
  %4 = alloca i32, align 4
  store i8 %0, ptr %3, align 1, !tbaa !14
  store i32 %1, ptr %4, align 4, !tbaa !10
  %5 = load i8, ptr %3, align 1, !tbaa !14
  %6 = zext i8 %5 to i64
  %7 = getelementptr inbounds nuw [256 x i8], ptr @_ZN3url20kSharedCharTypeTableE, i64 0, i64 %6
  %8 = load i8, ptr %7, align 1, !tbaa !14
  %9 = zext i8 %8 to i32
  %10 = load i32, ptr %4, align 4, !tbaa !10
  %11 = and i32 %9, %10
  %12 = icmp ne i32 %11, 0
  %13 = xor i1 %12, true
  %14 = xor i1 %13, true
  ret i1 %14
}

; Function Attrs: inlinehint mustprogress uwtable
define linkonce_odr void @_ZN3url22AppendUTF8EscapedValueEjPNS_12CanonOutputTIcEE(i32 noundef %0, ptr noundef %1) #4 comdat {
  %3 = alloca i32, align 4
  %4 = alloca ptr, align 8
  store i32 %0, ptr %3, align 4, !tbaa !8
  store ptr %1, ptr %4, align 8, !tbaa !12
  %5 = load i32, ptr %3, align 4, !tbaa !8
  %6 = load ptr, ptr %4, align 8, !tbaa !12
  call void @_ZN3url12DoAppendUTF8INS_12CanonOutputTIcEETnPFvhPT_EXadL_ZNS_17AppendEscapedCharIhcEEvS3_PNS1_IT0_EEEEEEvjS4_(i32 noundef %5, ptr noundef %6)
  ret void
}

; Function Attrs: mustprogress uwtable
define noundef zeroext i1 @_ZN3url11ReadUTFCharEPKcPiiPj(ptr noundef %0, ptr noundef %1, i32 noundef %2, ptr noundef %3) #0 {
  %5 = alloca i1, align 1
  %6 = alloca ptr, align 8
  %7 = alloca ptr, align 8
  %8 = alloca i32, align 4
  %9 = alloca ptr, align 8
  store ptr %0, ptr %6, align 8, !tbaa !3
  store ptr %1, ptr %7, align 8, !tbaa !22
  store i32 %2, ptr %8, align 4, !tbaa !8
  store ptr %3, ptr %9, align 8, !tbaa !22
  %10 = load ptr, ptr %6, align 8, !tbaa !3
  %11 = load i32, ptr %8, align 4, !tbaa !8
  %12 = load ptr, ptr %7, align 8, !tbaa !22
  %13 = load ptr, ptr %9, align 8, !tbaa !22
  %14 = call noundef zeroext i1 @_ZN4base20ReadUnicodeCharacterEPKciPiPj(ptr noundef %10, i32 noundef %11, ptr noundef %12, ptr noundef %13)
  br i1 %14, label %15, label %19

15:                                               ; preds = %4
  %16 = load ptr, ptr %9, align 8, !tbaa !22
  %17 = load i32, ptr %16, align 4, !tbaa !8
  %18 = call noundef zeroext i1 @_ZN4base16IsValidCharacterEj(i32 noundef %17)
  br i1 %18, label %21, label %19

19:                                               ; preds = %15, %4
  %20 = load ptr, ptr %9, align 8, !tbaa !22
  store i32 65533, ptr %20, align 4, !tbaa !8
  store i1 false, ptr %5, align 1
  br label %22

21:                                               ; preds = %15
  store i1 true, ptr %5, align 1
  br label %22

22:                                               ; preds = %21, %19
  %23 = load i1, ptr %5, align 1
  ret i1 %23
}

; Function Attrs: mustprogress uwtable
define internal void @_ZN3url12_GLOBAL__N_120DoAppendStringOfTypeIchEEvPKT_iNS_15SharedCharTypesEPNS_12CanonOutputTIcEE(ptr noundef %0, i32 noundef %1, i32 noundef %2, ptr noundef %3) #0 {
  %5 = alloca ptr, align 8
  %6 = alloca i32, align 4
  %7 = alloca i32, align 4
  %8 = alloca ptr, align 8
  %9 = alloca i32, align 4
  %10 = alloca i32, align 4
  %11 = alloca i8, align 1
  store ptr %0, ptr %5, align 8, !tbaa !3
  store i32 %1, ptr %6, align 4, !tbaa !8
  store i32 %2, ptr %7, align 4, !tbaa !10
  store ptr %3, ptr %8, align 8, !tbaa !12
  call void @llvm.lifetime.start.p0(i64 4, ptr %9) #8
  store i32 0, ptr %9, align 4, !tbaa !8
  br label %12

12:                                               ; preds = %48, %4
  %13 = load i32, ptr %9, align 4, !tbaa !8
  %14 = load i32, ptr %6, align 4, !tbaa !8
  %15 = icmp slt i32 %13, %14
  br i1 %15, label %17, label %16

16:                                               ; preds = %12
  call void @llvm.lifetime.end.p0(i64 4, ptr %9) #8
  br label %51

17:                                               ; preds = %12
  %18 = load ptr, ptr %5, align 8, !tbaa !3
  %19 = load i32, ptr %9, align 4, !tbaa !8
  %20 = sext i32 %19 to i64
  %21 = getelementptr inbounds i8, ptr %18, i64 %20
  %22 = load i8, ptr %21, align 1, !tbaa !14
  %23 = zext i8 %22 to i32
  %24 = icmp sge i32 %23, 128
  br i1 %24, label %25, label %31

25:                                               ; preds = %17
  call void @llvm.lifetime.start.p0(i64 4, ptr %10) #8
  %26 = load ptr, ptr %5, align 8, !tbaa !3
  %27 = load i32, ptr %6, align 4, !tbaa !8
  %28 = call noundef zeroext i1 @_ZN3url11ReadUTFCharEPKcPiiPj(ptr noundef %26, ptr noundef %9, i32 noundef %27, ptr noundef %10)
  %29 = load i32, ptr %10, align 4, !tbaa !8
  %30 = load ptr, ptr %8, align 8, !tbaa !12
  call void @_ZN3url22AppendUTF8EscapedValueEjPNS_12CanonOutputTIcEE(i32 noundef %29, ptr noundef %30)
  call void @llvm.lifetime.end.p0(i64 4, ptr %10) #8
  br label %47

31:                                               ; preds = %17
  call void @llvm.lifetime.start.p0(i64 1, ptr %11) #8
  %32 = load ptr, ptr %5, align 8, !tbaa !3
  %33 = load i32, ptr %9, align 4, !tbaa !8
  %34 = sext i32 %33 to i64
  %35 = getelementptr inbounds i8, ptr %32, i64 %34
  %36 = load i8, ptr %35, align 1, !tbaa !14
  store i8 %36, ptr %11, align 1, !tbaa !14
  %37 = load i8, ptr %11, align 1, !tbaa !14
  %38 = load i32, ptr %7, align 4, !tbaa !10
  %39 = call noundef zeroext i1 @_ZN3url12IsCharOfTypeEhNS_15SharedCharTypesE(i8 noundef zeroext %37, i32 noundef %38)
  br i1 %39, label %43, label %40

40:                                               ; preds = %31
  %41 = load i8, ptr %11, align 1, !tbaa !14
  %42 = load ptr, ptr %8, align 8, !tbaa !12
  call void @_ZN3url17AppendEscapedCharIhcEEvT_PNS_12CanonOutputTIT0_EE(i8 noundef zeroext %41, ptr noundef %42)
  br label %46

43:                                               ; preds = %31
  %44 = load ptr, ptr %8, align 8, !tbaa !12
  %45 = load i8, ptr %11, align 1, !tbaa !14
  call void @_ZN3url12CanonOutputTIcE9push_backEc(ptr noundef nonnull align 8 dereferenceable(24) %44, i8 noundef signext %45)
  br label %46

46:                                               ; preds = %43, %40
  call void @llvm.lifetime.end.p0(i64 1, ptr %11) #8
  br label %47

47:                                               ; preds = %46, %25
  br label %48

48:                                               ; preds = %47
  %49 = load i32, ptr %9, align 4, !tbaa !8
  %50 = add nsw i32 %49, 1
  store i32 %50, ptr %9, align 4, !tbaa !8
  br label %12, !llvm.loop !15

51:                                               ; preds = %16
  ret void
}

; Function Attrs: mustprogress uwtable
define void @_ZN3url18AppendStringOfTypeEPKciNS_15SharedCharTypesEPNS_12CanonOutputTIcEE(ptr noundef %0, i32 noundef %1, i32 noundef %2, ptr noundef %3) #0 {
  %5 = alloca ptr, align 8
  %6 = alloca i32, align 4
  %7 = alloca i32, align 4
  %8 = alloca ptr, align 8
  store ptr %0, ptr %5, align 8, !tbaa !3
  store i32 %1, ptr %6, align 4, !tbaa !8
  store i32 %2, ptr %7, align 4, !tbaa !10
  store ptr %3, ptr %8, align 8, !tbaa !12
  %9 = load ptr, ptr %5, align 8, !tbaa !3
  %10 = load i32, ptr %6, align 4, !tbaa !8
  %11 = load i32, ptr %7, align 4, !tbaa !10
  %12 = load ptr, ptr %8, align 8, !tbaa !12
  call void @_ZN3url12_GLOBAL__N_120DoAppendStringOfTypeIchEEvPKT_iNS_15SharedCharTypesEPNS_12CanonOutputTIcEE(ptr noundef %9, i32 noundef %10, i32 noundef %11, ptr noundef %12)
  ret void
}