; Function Attrs: mustprogress uwtable
define void @_ZN3url18AppendStringOfTypeEPKciNS_15SharedCharTypesEPNS_12CanonOutputTIcEE(ptr noundef %0, i32 noundef %1, i32 noundef %2, ptr noundef %3) local_unnamed_addr #0 {
  %5 = alloca i32, align 4
  %6 = alloca i32, align 4
  call void @llvm.lifetime.start.p0(i64 4, ptr nonnull %5) #7
  store i32 0, ptr %5, align 4, !tbaa !3
  %7 = icmp sgt i32 %1, 0
  br i1 %7, label %.lr.ph.i, label %_ZN3url12_GLOBAL__N_120DoAppendStringOfTypeIchEEvPKT_iNS_15SharedCharTypesEPNS_12CanonOutputTIcEE.exit

.lr.ph.i:                                         ; preds = %4
  %8 = getelementptr inbounds nuw i8, ptr %3, i64 20
  %9 = getelementptr inbounds nuw i8, ptr %3, i64 16
  %.sink3.in.i.i = getelementptr inbounds nuw i8, ptr %3, i64 8
  br label %10

10:                                               ; preds = %_ZN3url12CanonOutputTIcE9push_backEc.exit.i, %.lr.ph.i
  %storemerge12.i = phi i32 [ 0, %.lr.ph.i ], [ %51, %_ZN3url12CanonOutputTIcE9push_backEc.exit.i ]
  %11 = sext i32 %storemerge12.i to i64
  %12 = getelementptr inbounds i8, ptr %0, i64 %11
  %13 = load i8, ptr %12, align 1, !tbaa !7
  %14 = icmp slt i8 %13, 0
  br i1 %14, label %15, label %26

15:                                               ; preds = %10
  call void @llvm.lifetime.start.p0(i64 4, ptr nonnull %6) #7
  %16 = call noundef zeroext i1 @_ZN4base20ReadUnicodeCharacterEPKciPiPj(ptr noundef nonnull %0, i32 noundef %1, ptr noundef nonnull %5, ptr noundef nonnull %6)
  br i1 %16, label %17, label %_ZN4base16IsValidCharacterEj.exit.thread6.i.i

17:                                               ; preds = %15
  %18 = load i32, ptr %6, align 4, !tbaa !3
  %19 = icmp ult i32 %18, 55296
  %20 = add i32 %18, -57344
  %or.cond.i.i.i = icmp ult i32 %20, 7632
  %or.cond9.i.i.i = or i1 %19, %or.cond.i.i.i
  br i1 %or.cond9.i.i.i, label %_ZN3url11ReadUTFCharEPKcPiiPj.exit.i, label %21

21:                                               ; preds = %17
  %22 = add i32 %18, -65008
  %or.cond3.i.i.i = icmp ult i32 %22, 1049104
  %23 = and i32 %18, 65534
  %24 = icmp ne i32 %23, 65534
  %or.cond.i.i = and i1 %or.cond3.i.i.i, %24
  br i1 %or.cond.i.i, label %_ZN3url11ReadUTFCharEPKcPiiPj.exit.i, label %_ZN4base16IsValidCharacterEj.exit.thread6.i.i

_ZN4base16IsValidCharacterEj.exit.thread6.i.i:    ; preds = %21, %15
  store i32 65533, ptr %6, align 4, !tbaa !3
  br label %_ZN3url11ReadUTFCharEPKcPiiPj.exit.i

_ZN3url11ReadUTFCharEPKcPiiPj.exit.i:             ; preds = %_ZN4base16IsValidCharacterEj.exit.thread6.i.i, %21, %17
  %25 = phi i32 [ %18, %17 ], [ %18, %21 ], [ 65533, %_ZN4base16IsValidCharacterEj.exit.thread6.i.i ]
  call void @_ZN3url12DoAppendUTF8INS_12CanonOutputTIcEETnPFvhPT_EXadL_ZNS_17AppendEscapedCharIhcEEvS3_PNS1_IT0_EEEEEEvjS4_(i32 noundef %25, ptr noundef %3)
  call void @llvm.lifetime.end.p0(i64 4, ptr nonnull %6) #7
  br label %_ZN3url12CanonOutputTIcE9push_backEc.exit.i

26:                                               ; preds = %10
  %27 = zext nneg i8 %13 to i64
  %28 = getelementptr inbounds nuw [256 x i8], ptr @_ZN3url20kSharedCharTypeTableE, i64 0, i64 %27
  %29 = load i8, ptr %28, align 1, !tbaa !7
  %30 = zext i8 %29 to i32
  %31 = and i32 %2, %30
  %.not.i = icmp eq i32 %31, 0
  br i1 %.not.i, label %32, label %33

32:                                               ; preds = %26
  call void @_ZN3url17AppendEscapedCharIhcEEvT_PNS_12CanonOutputTIT0_EE(i8 noundef zeroext %13, ptr noundef %3)
  br label %_ZN3url12CanonOutputTIcE9push_backEc.exit.i

33:                                               ; preds = %26
  %34 = load i32, ptr %8, align 4, !tbaa !8
  %35 = load i32, ptr %9, align 8, !tbaa !12
  %36 = icmp slt i32 %34, %35
  br i1 %36, label %_ZN3url12CanonOutputTIcE4GrowEi.exit.sink.split.i.i, label %select.unfold.i.preheader.i.i

select.unfold.i.preheader.i.i:                    ; preds = %33
  %37 = icmp eq i32 %35, 0
  %spec.select = select i1 %37, i32 16, i32 %35
  br label %select.unfold.i.i.i

select.unfold.i.i.i:                              ; preds = %select.unfold.i.preheader.i.i, %39
  %.0.i.i.i = phi i32 [ %40, %39 ], [ %spec.select, %select.unfold.i.preheader.i.i ]
  %38 = icmp slt i32 %.0.i.i.i, 1073741824
  br i1 %38, label %39, label %_ZN3url12CanonOutputTIcE9push_backEc.exit.i

39:                                               ; preds = %select.unfold.i.i.i
  %40 = shl nsw i32 %.0.i.i.i, 1
  %.not.i.i = icmp sgt i32 %40, %35
  br i1 %.not.i.i, label %41, label %select.unfold.i.i.i, !llvm.loop !13

41:                                               ; preds = %39
  %42 = load ptr, ptr %3, align 8, !tbaa !15
  %43 = getelementptr inbounds nuw i8, ptr %42, i64 16
  %44 = load ptr, ptr %43, align 8
  call void %44(ptr noundef nonnull align 8 dereferenceable(24) %3, i32 noundef %40)
  %45 = load i32, ptr %8, align 4, !tbaa !8
  br label %_ZN3url12CanonOutputTIcE4GrowEi.exit.sink.split.i.i

_ZN3url12CanonOutputTIcE4GrowEi.exit.sink.split.i.i: ; preds = %41, %33
  %.sink.i.i = phi i32 [ %45, %41 ], [ %34, %33 ]
  %.sink3.i.i = load ptr, ptr %.sink3.in.i.i, align 8, !tbaa !17
  %46 = sext i32 %.sink.i.i to i64
  %47 = getelementptr inbounds i8, ptr %.sink3.i.i, i64 %46
  store i8 %13, ptr %47, align 1, !tbaa !7
  %48 = load i32, ptr %8, align 4, !tbaa !8
  %49 = add nsw i32 %48, 1
  store i32 %49, ptr %8, align 4, !tbaa !8
  br label %_ZN3url12CanonOutputTIcE9push_backEc.exit.i

_ZN3url12CanonOutputTIcE9push_backEc.exit.i:      ; preds = %select.unfold.i.i.i, %_ZN3url12CanonOutputTIcE4GrowEi.exit.sink.split.i.i, %32, %_ZN3url11ReadUTFCharEPKcPiiPj.exit.i
  %50 = load i32, ptr %5, align 4, !tbaa !3
  %51 = add nsw i32 %50, 1
  store i32 %51, ptr %5, align 4, !tbaa !3
  %52 = icmp slt i32 %51, %1
  br i1 %52, label %10, label %_ZN3url12_GLOBAL__N_120DoAppendStringOfTypeIchEEvPKT_iNS_15SharedCharTypesEPNS_12CanonOutputTIcEE.exit, !llvm.loop !18

_ZN3url12_GLOBAL__N_120DoAppendStringOfTypeIchEEvPKT_iNS_15SharedCharTypesEPNS_12CanonOutputTIcEE.exit: ; preds = %_ZN3url12CanonOutputTIcE9push_backEc.exit.i, %4
  call void @llvm.lifetime.end.p0(i64 4, ptr nonnull %5) #7
  ret void
}